target datalayout = "e-m:e-p270:32:32-p271:32:32-p272:64:64-i64:64-i128:128-f80:128-n8:16:32:64-S128"
target triple = "x86_64-pc-linux-gnu"

; Function Attrs: nounwind uwtable
define dso_local zeroext i1 @is_admin_of_role(i32 noundef %0, i32 noundef %1) #0 {
  %3 = alloca i1, align 1
  %4 = alloca i32, align 4
  %5 = alloca i32, align 4
  %6 = alloca i32, align 4
  %7 = alloca i32, align 4
  store i32 %0, ptr %4, align 4
  store i32 %1, ptr %5, align 4
  call void @llvm.lifetime.start.p0(i64 4, ptr %6) #9
  %8 = load i32, ptr %4, align 4
  %9 = call zeroext i1 @superuser_arg(i32 noundef %8)
  br i1 %9, label %10, label %11

10:                                               ; preds = %2
  store i1 true, ptr %3, align 1
  store i32 1, ptr %7, align 4
  br label %22

11:                                               ; preds = %2
  %12 = load i32, ptr %4, align 4
  %13 = load i32, ptr %5, align 4
  %14 = icmp eq i32 %12, %13
  br i1 %14, label %15, label %16

15:                                               ; preds = %11
  store i1 false, ptr %3, align 1
  store i32 1, ptr %7, align 4
  br label %22

16:                                               ; preds = %11
  %17 = load i32, ptr %4, align 4
  %18 = load i32, ptr %5, align 4
  %19 = call ptr @roles_is_member_of(i32 noundef %17, i32 noundef 0, i32 noundef %18, ptr noundef %6)
  %20 = load i32, ptr %6, align 4
  %21 = icmp ne i32 %20, 0
  store i1 %21, ptr %3, align 1
  store i32 1, ptr %7, align 4
  br label %22

22:                                               ; preds = %16, %15, %10
  call void @llvm.lifetime.end.p0(i64 4, ptr %6) #9
  %23 = load i1, ptr %3, align 1
  ret i1 %23
}