; Function Attrs: nounwind uwtable
define dso_local zeroext i1 @is_admin_of_role(i32 noundef %0, i32 noundef %1) local_unnamed_addr #0 {
  %3 = alloca i32, align 4
  call void @llvm.lifetime.start.p0(i64 4, ptr nonnull %3) #14
  %4 = tail call zeroext i1 @superuser_arg(i32 noundef %0) #14
  br i1 %4, label %11, label %5

5:                                                ; preds = %2
  %6 = icmp eq i32 %0, %1
  br i1 %6, label %11, label %7

7:                                                ; preds = %5
  %8 = call fastcc ptr @roles_is_member_of(i32 noundef %0, i32 noundef 0, i32 noundef %1, ptr noundef nonnull %3)
  %9 = load i32, ptr %3, align 4
  %10 = icmp ne i32 %9, 0
  br label %11

11:                                               ; preds = %5, %2, %7
  %.0 = phi i1 [ %10, %7 ], [ true, %2 ], [ false, %5 ]
  call void @llvm.lifetime.end.p0(i64 4, ptr nonnull %3) #14
  ret i1 %.0
}